target datalayout = "e-m:e-p270:32:32-p271:32:32-p272:64:64-i64:64-i128:128-f80:128-n8:16:32:64-S128"
target triple = "x86_64-unknown-linux-gnu"

%"class.rocksdb::Slice" = type { ptr, i64 }
%"class.std::__shared_count" = type { ptr }
%"class.rocksdb::Endpoint" = type <{ %"class.rocksdb::Slice", i8, [7 x i8] }>
%struct.__toku_dbt = type { ptr, i64, i64, i32 }
%"class.std::__cxx11::basic_string" = type { %"struct.std::__cxx11::basic_string<char>::_Alloc_hider", i64, %union.anon.16 }
%"struct.std::__cxx11::basic_string<char>::_Alloc_hider" = type { ptr }
%union.anon.16 = type { i64, [8 x i8] }
%"class.std::shared_ptr.30" = type { %"class.std::__shared_ptr.31" }
%"class.std::__shared_ptr.31" = type { ptr, %"class.std::__shared_count" }
%"class.toku::range_buffer" = type <{ %class.memarena, i32, [4 x i8] }>
%class.memarena = type { %"struct.memarena::arena_chunk", ptr, i32, i64, i64 }
%"struct.memarena::arena_chunk" = type { ptr, i64, i64 }

; Function Attrs: mustprogress nounwind uwtable
define linkonce_odr void @_ZN8memarena11arena_chunkC2Ev(ptr noundef nonnull align 8 dereferenceable(24) %this) unnamed_addr #1 comdat align 2 {
entry:
  %this.addr = alloca ptr, align 8
  store ptr %this, ptr %this.addr, align 8
  %this1 = load ptr, ptr %this.addr, align 8
  %buf = getelementptr inbounds %"struct.memarena::arena_chunk", ptr %this1, i32 0, i32 0
  store ptr null, ptr %buf, align 8
  %used = getelementptr inbounds %"struct.memarena::arena_chunk", ptr %this1, i32 0, i32 1
  store i64 0, ptr %used, align 8
  %size = getelementptr inbounds %"struct.memarena::arena_chunk", ptr %this1, i32 0, i32 2
  store i64 0, ptr %size, align 8
  ret void
}

; Function Attrs: mustprogress nounwind uwtable
define linkonce_odr noundef ptr @_ZNKSt19__shared_ptr_accessIN4toku8locktreeELN9__gnu_cxx12_Lock_policyE2ELb0ELb0EE6_M_getEv(ptr noundef nonnull align 1 dereferenceable(1) %this) #1 comdat align 2 {
entry:
  %this.addr = alloca ptr, align 8
  store ptr %this, ptr %this.addr, align 8
  %this1 = load ptr, ptr %this.addr, align 8
  %call = call noundef ptr @_ZNKSt12__shared_ptrIN4toku8locktreeELN9__gnu_cxx12_Lock_policyE2EE3getEv(ptr noundef nonnull align 8 dereferenceable(16) %this1) #3
  ret ptr %call
}

; Function Attrs: mustprogress uwtable
define linkonce_odr void @_ZN8memarenaC2Ev(ptr noundef nonnull align 8 dereferenceable(56) %this) unnamed_addr #0 comdat align 2 {
entry:
  %this.addr = alloca ptr, align 8
  store ptr %this, ptr %this.addr, align 8
  %this1 = load ptr, ptr %this.addr, align 8
  %_current_chunk = getelementptr inbounds %class.memarena, ptr %this1, i32 0, i32 0
  call void @_ZN8memarena11arena_chunkC2Ev(ptr noundef nonnull align 8 dereferenceable(24) %_current_chunk)
  %_other_chunks = getelementptr inbounds %class.memarena, ptr %this1, i32 0, i32 1
  store ptr null, ptr %_other_chunks, align 8
  %_n_other_chunks = getelementptr inbounds %class.memarena, ptr %this1, i32 0, i32 2
  store i32 0, ptr %_n_other_chunks, align 8
  %_size_of_other_chunks = getelementptr inbounds %class.memarena, ptr %this1, i32 0, i32 3
  store i64 0, ptr %_size_of_other_chunks, align 8
  %_footprint_of_other_chunks = getelementptr inbounds %class.memarena, ptr %this1, i32 0, i32 4
  store i64 0, ptr %_footprint_of_other_chunks, align 8
  ret void
}

; Function Attrs: mustprogress nounwind uwtable
define linkonce_odr noundef i64 @_ZNK7rocksdb5Slice4sizeEv(ptr noundef nonnull align 8 dereferenceable(16) %this) #1 comdat align 2 {
entry:
  %this.addr = alloca ptr, align 8
  store ptr %this, ptr %this.addr, align 8
  %this1 = load ptr, ptr %this.addr, align 8
  %size_ = getelementptr inbounds %"class.rocksdb::Slice", ptr %this1, i32 0, i32 1
  %0 = load i64, ptr %size_, align 8
  ret i64 %0
}

; Function Attrs: mustprogress nounwind uwtable
define linkonce_odr noundef ptr @_ZNK7rocksdb5Slice4dataEv(ptr noundef nonnull align 8 dereferenceable(16) %this) #1 comdat align 2 {
entry:
  %this.addr = alloca ptr, align 8
  store ptr %this, ptr %this.addr, align 8
  %this1 = load ptr, ptr %this.addr, align 8
  %data_ = getelementptr inbounds %"class.rocksdb::Slice", ptr %this1, i32 0, i32 0
  %0 = load ptr, ptr %data_, align 8
  ret ptr %0
}

; Function Attrs: mustprogress nounwind uwtable
define linkonce_odr void @_ZN7rocksdb5SliceC2EPKcm(ptr noundef nonnull align 8 dereferenceable(16) %this, ptr noundef %d, i64 noundef %n) unnamed_addr #1 comdat align 2 {
entry:
  %this.addr = alloca ptr, align 8
  %d.addr = alloca ptr, align 8
  %n.addr = alloca i64, align 8
  store ptr %this, ptr %this.addr, align 8
  store ptr %d, ptr %d.addr, align 8
  store i64 %n, ptr %n.addr, align 8
  %this1 = load ptr, ptr %this.addr, align 8
  %data_ = getelementptr inbounds %"class.rocksdb::Slice", ptr %this1, i32 0, i32 0
  %0 = load ptr, ptr %d.addr, align 8
  store ptr %0, ptr %data_, align 8
  %size_ = getelementptr inbounds %"class.rocksdb::Slice", ptr %this1, i32 0, i32 1
  %1 = load i64, ptr %n.addr, align 8
  store i64 %1, ptr %size_, align 8
  ret void
}

; Function Attrs: mustprogress nounwind uwtable
define linkonce_odr noundef ptr @_ZNKSt12__shared_ptrIN4toku8locktreeELN9__gnu_cxx12_Lock_policyE2EE3getEv(ptr noundef nonnull align 8 dereferenceable(16) %this) #1 comdat align 2 {
entry:
  %this.addr = alloca ptr, align 8
  store ptr %this, ptr %this.addr, align 8
  %this1 = load ptr, ptr %this.addr, align 8
  %_M_ptr = getelementptr inbounds %"class.std::__shared_ptr.31", ptr %this1, i32 0, i32 0
  %0 = load ptr, ptr %_M_ptr, align 8
  ret ptr %0
}

; Function Attrs: mustprogress nounwind uwtable
define linkonce_odr noundef ptr @_ZNKSt19__shared_ptr_accessIN4toku8locktreeELN9__gnu_cxx12_Lock_policyE2ELb0ELb0EEptEv(ptr noundef nonnull align 1 dereferenceable(1) %this) #1 comdat align 2 {
entry:
  %this.addr = alloca ptr, align 8
  store ptr %this, ptr %this.addr, align 8
  %this1 = load ptr, ptr %this.addr, align 8
  %call = call noundef ptr @_ZNKSt19__shared_ptr_accessIN4toku8locktreeELN9__gnu_cxx12_Lock_policyE2ELb0ELb0EE6_M_getEv(ptr noundef nonnull align 1 dereferenceable(1) %this1) #3
  ret ptr %call
}

; Function Attrs: mustprogress uwtable
define linkonce_odr void @_ZN4toku12range_bufferC2Ev(ptr noundef nonnull align 8 dereferenceable(60) %this) unnamed_addr #0 comdat align 2 {
entry:
  %this.addr = alloca ptr, align 8
  store ptr %this, ptr %this.addr, align 8
  %this1 = load ptr, ptr %this.addr, align 8
  %_arena = getelementptr inbounds %"class.toku::range_buffer", ptr %this1, i32 0, i32 0
  call void @_ZN8memarenaC2Ev(ptr noundef nonnull align 8 dereferenceable(56) %_arena)
  ret void
}

; Function Attrs: mustprogress uwtable
define void @_ZN7rocksdb18serialize_endpointERKNS_8EndpointEPNSt7__cxx1112basic_stringIcSt11char_traitsIcESaIcEEE(ptr noundef nonnull align 8 dereferenceable(17) %endp, ptr noundef %buf) #0 {
entry:
  %endp.addr = alloca ptr, align 8
  %buf.addr = alloca ptr, align 8
  store ptr %endp, ptr %endp.addr, align 8
  store ptr %buf, ptr %buf.addr, align 8
  %0 = load ptr, ptr %buf.addr, align 8
  %1 = load ptr, ptr %endp.addr, align 8
  %inf_suffix = getelementptr inbounds %"class.rocksdb::Endpoint", ptr %1, i32 0, i32 1
  %2 = load i8, ptr %inf_suffix, align 8
  %tobool = trunc i8 %2 to i1
  %cond = select i1 %tobool, i8 1, i8 0
  call void @_ZNSt7__cxx1112basic_stringIcSt11char_traitsIcESaIcEE9push_backEc(ptr noundef nonnull align 8 dereferenceable(32) %0, i8 noundef signext %cond)
  %3 = load ptr, ptr %buf.addr, align 8
  %4 = load ptr, ptr %endp.addr, align 8
  %slice = getelementptr inbounds %"class.rocksdb::Endpoint", ptr %4, i32 0, i32 0
  %call = call noundef ptr @_ZNK7rocksdb5Slice4dataEv(ptr noundef nonnull align 8 dereferenceable(16) %slice)
  %5 = load ptr, ptr %endp.addr, align 8
  %slice1 = getelementptr inbounds %"class.rocksdb::Endpoint", ptr %5, i32 0, i32 0
  %call2 = call noundef i64 @_ZNK7rocksdb5Slice4sizeEv(ptr noundef nonnull align 8 dereferenceable(16) %slice1)
  %call3 = call noundef nonnull align 8 dereferenceable(32) ptr @_ZNSt7__cxx1112basic_stringIcSt11char_traitsIcESaIcEE6appendEPKcm(ptr noundef nonnull align 8 dereferenceable(32) %3, ptr noundef %call, i64 noundef %call2)
  ret void
}

; Function Attrs: mustprogress uwtable
define linkonce_odr void @_ZN7rocksdb8EndpointC2EPKcmb(ptr noundef nonnull align 8 dereferenceable(17) %this, ptr noundef %s, i64 noundef %size, i1 noundef zeroext %inf_suffix_arg) unnamed_addr #0 comdat align 2 {
entry:
  %this.addr = alloca ptr, align 8
  %s.addr = alloca ptr, align 8
  %size.addr = alloca i64, align 8
  %inf_suffix_arg.addr = alloca i8, align 1
  store ptr %this, ptr %this.addr, align 8
  store ptr %s, ptr %s.addr, align 8
  store i64 %size, ptr %size.addr, align 8
  %frombool = zext i1 %inf_suffix_arg to i8
  store i8 %frombool, ptr %inf_suffix_arg.addr, align 1
  %this1 = load ptr, ptr %this.addr, align 8
  %slice = getelementptr inbounds %"class.rocksdb::Endpoint", ptr %this1, i32 0, i32 0
  %0 = load ptr, ptr %s.addr, align 8
  %1 = load i64, ptr %size.addr, align 8
  call void @_ZN7rocksdb5SliceC2EPKcm(ptr noundef nonnull align 8 dereferenceable(16) %slice, ptr noundef %0, i64 noundef %1)
  %inf_suffix = getelementptr inbounds %"class.rocksdb::Endpoint", ptr %this1, i32 0, i32 1
  %2 = load i8, ptr %inf_suffix_arg.addr, align 1
  %tobool = trunc i8 %2 to i1
  %frombool2 = zext i1 %tobool to i8
  store i8 %frombool2, ptr %inf_suffix, align 8
  ret void
}

; Function Attrs: mustprogress uwtable
define void @_ZN7rocksdb20RangeTreeLockManager6UnLockEPNS_22PessimisticTransactionEjRKNSt7__cxx1112basic_stringIcSt11char_traitsIcESaIcEEEPNS_3EnvE(ptr noundef nonnull align 8 dereferenceable(656) %this, ptr noundef %txn, i32 noundef %column_family_id, ptr noundef nonnull align 8 dereferenceable(32) %key, ptr noundef %0) unnamed_addr #0 align 2 personality ptr @__gxx_personality_v0 {
entry:
  %this.addr = alloca ptr, align 8
  %txn.addr = alloca ptr, align 8
  %column_family_id.addr = alloca i32, align 4
  %key.addr = alloca ptr, align 8
  %.addr = alloca ptr, align 8
  %locktree = alloca %"class.std::shared_ptr.30", align 8
  %endp_image = alloca %"class.std::__cxx11::basic_string", align 8
  %ref.tmp = alloca %"class.rocksdb::Endpoint", align 8
  %exn.slot = alloca ptr, align 8
  %ehselector.slot = alloca i32, align 4
  %key_dbt = alloca %struct.__toku_dbt, align 8
  %range_buf = alloca %"class.toku::range_buffer", align 8
  store ptr %this, ptr %this.addr, align 8
  store ptr %txn, ptr %txn.addr, align 8
  store i32 %column_family_id, ptr %column_family_id.addr, align 4
  store ptr %key, ptr %key.addr, align 8
  store ptr %0, ptr %.addr, align 8
  %this1 = load ptr, ptr %this.addr, align 8
  %1 = load i32, ptr %column_family_id.addr, align 4
  call void @_ZN7rocksdb20RangeTreeLockManager16GetLockTreeForCFEj(ptr sret(%"class.std::shared_ptr.30") align 8 %locktree, ptr noundef nonnull align 8 dereferenceable(656) %this1, i32 noundef %1)
  call void @_ZNSt7__cxx1112basic_stringIcSt11char_traitsIcESaIcEEC1Ev(ptr noundef nonnull align 8 dereferenceable(32) %endp_image) #3
  %2 = load ptr, ptr %key.addr, align 8
  %call = call noundef ptr @_ZNKSt7__cxx1112basic_stringIcSt11char_traitsIcESaIcEE4dataEv(ptr noundef nonnull align 8 dereferenceable(32) %2) #3
  %3 = load ptr, ptr %key.addr, align 8
  %call2 = call noundef i64 @_ZNKSt7__cxx1112basic_stringIcSt11char_traitsIcESaIcEE4sizeEv(ptr noundef nonnull align 8 dereferenceable(32) %3) #3
  invoke void @_ZN7rocksdb8EndpointC2EPKcmb(ptr noundef nonnull align 8 dereferenceable(17) %ref.tmp, ptr noundef %call, i64 noundef %call2, i1 noundef zeroext false)
          to label %invoke.cont unwind label %lpad

invoke.cont:                                      ; preds = %entry
  invoke void @_ZN7rocksdb18serialize_endpointERKNS_8EndpointEPNSt7__cxx1112basic_stringIcSt11char_traitsIcESaIcEEE(ptr noundef nonnull align 8 dereferenceable(17) %ref.tmp, ptr noundef %endp_image)
          to label %invoke.cont3 unwind label %lpad

invoke.cont3:                                     ; preds = %invoke.cont
  %call4 = call noundef ptr @_ZNSt7__cxx1112basic_stringIcSt11char_traitsIcESaIcEE4dataEv(ptr noundef nonnull align 8 dereferenceable(32) %endp_image) #3
  %call5 = call noundef i64 @_ZNKSt7__cxx1112basic_stringIcSt11char_traitsIcESaIcEE4sizeEv(ptr noundef nonnull align 8 dereferenceable(32) %endp_image) #3
  %call7 = invoke noundef ptr @_Z13toku_fill_dbtP10__toku_dbtPKvm(ptr noundef %key_dbt, ptr noundef %call4, i64 noundef %call5)
          to label %invoke.cont6 unwind label %lpad

invoke.cont6:                                     ; preds = %invoke.cont3
  invoke void @_ZN4toku12range_bufferC2Ev(ptr noundef nonnull align 8 dereferenceable(60) %range_buf)
          to label %invoke.cont8 unwind label %lpad

invoke.cont8:                                     ; preds = %invoke.cont6
  invoke void @_ZN4toku12range_buffer6createEv(ptr noundef nonnull align 8 dereferenceable(60) %range_buf)
          to label %invoke.cont9 unwind label %lpad

invoke.cont9:                                     ; preds = %invoke.cont8
  invoke void @_ZN4toku12range_buffer6appendEPK10__toku_dbtS3_b(ptr noundef nonnull align 8 dereferenceable(60) %range_buf, ptr noundef %key_dbt, ptr noundef %key_dbt, i1 noundef zeroext false)
          to label %invoke.cont10 unwind label %lpad

invoke.cont10:                                    ; preds = %invoke.cont9
  %call11 = call noundef ptr @_ZNKSt19__shared_ptr_accessIN4toku8locktreeELN9__gnu_cxx12_Lock_policyE2ELb0ELb0EEptEv(ptr noundef nonnull align 1 dereferenceable(1) %locktree) #3
  %4 = load ptr, ptr %txn.addr, align 8
  %5 = ptrtoint ptr %4 to i64
  invoke void @_ZN4toku8locktree13release_locksEmPKNS_12range_bufferEb(ptr noundef nonnull align 8 dereferenceable(400) %call11, i64 noundef %5, ptr noundef %range_buf, i1 noundef zeroext false)
          to label %invoke.cont12 unwind label %lpad

invoke.cont12:                                    ; preds = %invoke.cont10
  invoke void @_ZN4toku12range_buffer7destroyEv(ptr noundef nonnull align 8 dereferenceable(60) %range_buf)
          to label %invoke.cont13 unwind label %lpad

invoke.cont13:                                    ; preds = %invoke.cont12
  %call14 = call noundef ptr @_ZNKSt12__shared_ptrIN4toku8locktreeELN9__gnu_cxx12_Lock_policyE2EE3getEv(ptr noundef nonnull align 8 dereferenceable(16) %locktree) #3
  invoke void @_ZN4toku12lock_request23retry_all_lock_requestsEPNS_8locktreeEPFvPvPSt6vectorINS_14lock_wait_infoESaIS5_EEES3_PFvvE(ptr noundef %call14, ptr noundef @_ZN7rocksdb26wait_callback_for_locktreeEPvPSt6vectorIN4toku14lock_wait_infoESaIS3_EE, ptr noundef null, ptr noundef null)
          to label %invoke.cont15 unwind label %lpad

invoke.cont15:                                    ; preds = %invoke.cont13
  call void @_ZNSt7__cxx1112basic_stringIcSt11char_traitsIcESaIcEED1Ev(ptr noundef nonnull align 8 dereferenceable(32) %endp_image) #3
  call void @_ZNSt10shared_ptrIN4toku8locktreeEED2Ev(ptr noundef nonnull align 8 dereferenceable(16) %locktree) #3
  ret void

lpad:                                             ; preds = %invoke.cont13, %invoke.cont12, %invoke.cont10, %invoke.cont9, %invoke.cont8, %invoke.cont6, %invoke.cont3, %invoke.cont, %entry
  %6 = landingpad { ptr, i32 }
          cleanup
  %7 = extractvalue { ptr, i32 } %6, 0
  store ptr %7, ptr %exn.slot, align 8
  %8 = extractvalue { ptr, i32 } %6, 1
  store i32 %8, ptr %ehselector.slot, align 4
  call void @_ZNSt7__cxx1112basic_stringIcSt11char_traitsIcESaIcEED1Ev(ptr noundef nonnull align 8 dereferenceable(32) %endp_image) #3
  call void @_ZNSt10shared_ptrIN4toku8locktreeEED2Ev(ptr noundef nonnull align 8 dereferenceable(16) %locktree) #3
  br label %eh.resume

eh.resume:                                        ; preds = %lpad
  %exn = load ptr, ptr %exn.slot, align 8
  %sel = load i32, ptr %ehselector.slot, align 4
  %lpad.val = insertvalue { ptr, i32 } poison, ptr %exn, 0
  %lpad.val16 = insertvalue { ptr, i32 } %lpad.val, i32 %sel, 1
  resume { ptr, i32 } %lpad.val16
}